target datalayout = "e-m:e-p270:32:32-p271:32:32-p272:64:64-i64:64-i128:128-f80:128-n8:16:32:64-S128"
target triple = "x86_64-pc-linux-gnu"

%struct.H5FL_reg_head_t = type { i8, i32, i32, ptr, i64, ptr }
%struct.H5O_shared_t = type { i32, ptr, i32, %union.anon }
%union.anon = type { %struct.H5O_mesg_loc_t }
%struct.H5O_mesg_loc_t = type { i32, i64 }
%struct.H5S_extent_t = type { %struct.H5O_shared_t, i32, i32, i64, i32, ptr, ptr }
%struct.H5O_copy_t = type { i8, i8, i8, i8, i8, i8, i8, ptr, i32, i32, ptr, ptr, i8, ptr, ptr, ptr, ptr, ptr, i64 }
%struct.H5D_copy_file_ud_t = type { %struct.H5O_copy_file_ud_common_t, ptr, ptr }
%struct.H5O_copy_file_ud_common_t = type { ptr }

@H5E_OHDR_g = external global i64, align 8
@H5_H5S_extent_t_reg_free_list = external global %struct.H5FL_reg_head_t, align 8
@.str.4 = private unnamed_addr constant [104 x i8] c"generated/home/dtcxzyw/WorkSpace/Projects/compilers/llvm-opt-benchmark/bench/hdf5/hdf5/src/H5Osdspace.c\00", align 1
@H5E_DATASPACE_g = external global i64, align 8
@H5E_CANTCOPY_g = external global i64, align 8
@H5E_NOSPACE_g = external global i64, align 8
@.str.36 = private unnamed_addr constant [18 x i8] c"can't copy extent\00", align 1
@H5O_sdspace_ver_bounds = external constant [6 x i32], align 16
@__func__.H5O__sdspace_pre_copy_file = private unnamed_addr constant [27 x i8] c"H5O__sdspace_pre_copy_file\00", align 1
@H5E_BADRANGE_g = external global i64, align 8
@.str.37 = private unnamed_addr constant [40 x i8] c"dataspace message version out of bounds\00", align 1
@.str.38 = private unnamed_addr constant [35 x i8] c"dataspace extent allocation failed\00", align 1

; Function Attrs: nounwind uwtable
define internal i32 @H5O__sdspace_pre_copy_file(ptr noundef %0, ptr noundef %1, ptr noundef %2, ptr noundef %3, ptr noundef %4) #0 {
  %6 = alloca ptr, align 8
  %7 = alloca ptr, align 8
  %8 = alloca ptr, align 8
  %9 = alloca ptr, align 8
  %10 = alloca ptr, align 8
  %11 = alloca ptr, align 8
  %12 = alloca ptr, align 8
  %13 = alloca i32, align 4
  %14 = alloca i8, align 1
  store ptr %0, ptr %6, align 8
  store ptr %1, ptr %7, align 8
  store ptr %2, ptr %8, align 8
  store ptr %3, ptr %9, align 8
  store ptr %4, ptr %10, align 8
  %15 = load ptr, ptr %7, align 8
  store ptr %15, ptr %11, align 8
  %16 = load ptr, ptr %10, align 8
  store ptr %16, ptr %12, align 8
  store i32 0, ptr %13, align 4
  store i8 0, ptr %14, align 1
  %17 = load ptr, ptr %11, align 8
  %18 = getelementptr inbounds %struct.H5S_extent_t, ptr %17, i32 0, i32 2
  %19 = load i32, ptr %18, align 4
  %20 = load ptr, ptr %9, align 8
  %21 = getelementptr inbounds %struct.H5O_copy_t, ptr %20, i32 0, i32 14
  %22 = load ptr, ptr %21, align 8
  %23 = call i32 @H5F_get_high_bound(ptr noundef %22)
  %24 = sext i32 %23 to i64
  %25 = getelementptr inbounds [6 x i32], ptr @H5O_sdspace_ver_bounds, i64 0, i64 %24
  %26 = load i32, ptr %25, align 4
  %27 = icmp ugt i32 %19, %26
  br i1 %27, label %28, label %43

28:                                               ; preds = %5
  br label %29

29:                                               ; preds = %28
  br label %30

30:                                               ; preds = %29
  br label %31

31:                                               ; preds = %30
  %32 = load i64, ptr @H5E_OHDR_g, align 8
  %33 = load i64, ptr @H5E_BADRANGE_g, align 8
  %34 = call i32 (ptr, ptr, i32, i64, i64, ptr, ...) @H5E_printf_stack(ptr noundef @.str.4, ptr noundef @__func__.H5O__sdspace_pre_copy_file, i32 noundef 460, i64 noundef %32, i64 noundef %33, ptr noundef @.str.37)
  br label %35

35:                                               ; preds = %31
  store i8 1, ptr %14, align 1
  %36 = load i8, ptr %14, align 1
  %37 = trunc i8 %36 to i1
  %38 = zext i1 %37 to i8
  store i8 %38, ptr %14, align 1
  br label %39

39:                                               ; preds = %35
  br label %40

40:                                               ; preds = %39
  store i32 -1, ptr %13, align 4
  br label %90

41:                                               ; No predecessors!
  br label %42

42:                                               ; preds = %41
  br label %43

43:                                               ; preds = %42, %5
  %44 = load ptr, ptr %12, align 8
  %45 = icmp ne ptr %44, null
  br i1 %45, label %46, label %89

46:                                               ; preds = %43
  %47 = call noalias ptr @H5FL_reg_calloc(ptr noundef @H5_H5S_extent_t_reg_free_list)
  %48 = load ptr, ptr %12, align 8
  %49 = getelementptr inbounds %struct.H5D_copy_file_ud_t, ptr %48, i32 0, i32 1
  store ptr %47, ptr %49, align 8
  %50 = icmp eq ptr null, %47
  br i1 %50, label %51, label %66

51:                                               ; preds = %46
  br label %52

52:                                               ; preds = %51
  br label %53

53:                                               ; preds = %52
  br label %54

54:                                               ; preds = %53
  %55 = load i64, ptr @H5E_DATASPACE_g, align 8
  %56 = load i64, ptr @H5E_NOSPACE_g, align 8
  %57 = call i32 (ptr, ptr, i32, i64, i64, ptr, ...) @H5E_printf_stack(ptr noundef @.str.4, ptr noundef @__func__.H5O__sdspace_pre_copy_file, i32 noundef 471, i64 noundef %55, i64 noundef %56, ptr noundef @.str.38)
  br label %58

58:                                               ; preds = %54
  store i8 1, ptr %14, align 1
  %59 = load i8, ptr %14, align 1
  %60 = trunc i8 %59 to i1
  %61 = zext i1 %60 to i8
  store i8 %61, ptr %14, align 1
  br label %62

62:                                               ; preds = %58
  br label %63

63:                                               ; preds = %62
  store i32 -1, ptr %13, align 4
  br label %90

64:                                               ; No predecessors!
  br label %65

65:                                               ; preds = %64
  br label %66

66:                                               ; preds = %65, %46
  %67 = load ptr, ptr %12, align 8
  %68 = getelementptr inbounds %struct.H5D_copy_file_ud_t, ptr %67, i32 0, i32 1
  %69 = load ptr, ptr %68, align 8
  %70 = load ptr, ptr %11, align 8
  %71 = call i32 @H5S__extent_copy_real(ptr noundef %69, ptr noundef %70, i1 noundef zeroext true)
  %72 = icmp slt i32 %71, 0
  br i1 %72, label %73, label %88

73:                                               ; preds = %66
  br label %74

74:                                               ; preds = %73
  br label %75

75:                                               ; preds = %74
  br label %76

76:                                               ; preds = %75
  %77 = load i64, ptr @H5E_DATASPACE_g, align 8
  %78 = load i64, ptr @H5E_CANTCOPY_g, align 8
  %79 = call i32 (ptr, ptr, i32, i64, i64, ptr, ...) @H5E_printf_stack(ptr noundef @.str.4, ptr noundef @__func__.H5O__sdspace_pre_copy_file, i32 noundef 475, i64 noundef %77, i64 noundef %78, ptr noundef @.str.36)
  br label %80

80:                                               ; preds = %76
  store i8 1, ptr %14, align 1
  %81 = load i8, ptr %14, align 1
  %82 = trunc i8 %81 to i1
  %83 = zext i1 %82 to i8
  store i8 %83, ptr %14, align 1
  br label %84

84:                                               ; preds = %80
  br label %85

85:                                               ; preds = %84
  store i32 -1, ptr %13, align 4
  br label %90

86:                                               ; No predecessors!
  br label %87

87:                                               ; preds = %86
  br label %88

88:                                               ; preds = %87, %66
  br label %89

89:                                               ; preds = %88, %43
  br label %90

90:                                               ; preds = %89, %85, %63, %40
  %91 = load i32, ptr %13, align 4
  ret i32 %91
}