; Function Attrs: nounwind uwtable
define internal range(i32 -1, 1) i32 @H5O__sdspace_pre_copy_file(ptr nocapture readnone %0, ptr noundef %1, ptr nocapture readnone %2, ptr nocapture noundef readonly %3, ptr noundef writeonly %4) #0 {
  %6 = getelementptr inbounds i8, ptr %1, i64 44
  %7 = load i32, ptr %6, align 4
  %8 = getelementptr inbounds i8, ptr %3, i64 56
  %9 = load ptr, ptr %8, align 8
  %10 = tail call i32 @H5F_get_high_bound(ptr noundef %9) #5
  %11 = sext i32 %10 to i64
  %12 = getelementptr inbounds [6 x i32], ptr @H5O_sdspace_ver_bounds, i64 0, i64 %11
  %13 = load i32, ptr %12, align 4
  %14 = icmp ugt i32 %7, %13
  br i1 %14, label %15, label %19

15:                                               ; preds = %5
  %16 = load i64, ptr @H5E_OHDR_g, align 8
  %17 = load i64, ptr @H5E_BADRANGE_g, align 8
  %18 = tail call i32 (ptr, ptr, i32, i64, i64, ptr, ...) @H5E_printf_stack(ptr noundef nonnull @.str.4, ptr noundef nonnull @__func__.H5O__sdspace_pre_copy_file, i32 noundef 460, i64 noundef %16, i64 noundef %17, ptr noundef nonnull @.str.37) #5
  br label %35

19:                                               ; preds = %5
  %.not = icmp eq ptr %4, null
  br i1 %.not, label %35, label %20

20:                                               ; preds = %19
  %21 = tail call noalias ptr @H5FL_reg_calloc(ptr noundef nonnull @H5_H5S_extent_t_reg_free_list) #5
  %22 = getelementptr inbounds i8, ptr %4, i64 8
  store ptr %21, ptr %22, align 8
  %23 = icmp eq ptr %21, null
  br i1 %23, label %24, label %28

24:                                               ; preds = %20
  %25 = load i64, ptr @H5E_DATASPACE_g, align 8
  %26 = load i64, ptr @H5E_NOSPACE_g, align 8
  %27 = tail call i32 (ptr, ptr, i32, i64, i64, ptr, ...) @H5E_printf_stack(ptr noundef nonnull @.str.4, ptr noundef nonnull @__func__.H5O__sdspace_pre_copy_file, i32 noundef 471, i64 noundef %25, i64 noundef %26, ptr noundef nonnull @.str.38) #5
  br label %35

28:                                               ; preds = %20
  %29 = tail call i32 @H5S__extent_copy_real(ptr noundef nonnull %21, ptr noundef nonnull %1, i1 noundef zeroext true) #5
  %30 = icmp slt i32 %29, 0
  br i1 %30, label %31, label %35

31:                                               ; preds = %28
  %32 = load i64, ptr @H5E_DATASPACE_g, align 8
  %33 = load i64, ptr @H5E_CANTCOPY_g, align 8
  %34 = tail call i32 (ptr, ptr, i32, i64, i64, ptr, ...) @H5E_printf_stack(ptr noundef nonnull @.str.4, ptr noundef nonnull @__func__.H5O__sdspace_pre_copy_file, i32 noundef 475, i64 noundef %32, i64 noundef %33, ptr noundef nonnull @.str.36) #5
  br label %35

35:                                               ; preds = %19, %28, %31, %24, %15
  %.0 = phi i32 [ -1, %15 ], [ -1, %24 ], [ -1, %31 ], [ 0, %28 ], [ 0, %19 ]
  ret i32 %.0
}